ccopy_reg
_reconstructor
p1
(cspatialdigraph
SpatialDiGraph
p2
c__builtin__
object
p3
NtRp4
(dp5
S'node'
p6
(dp7
S'195049052'
p8
(dp9
S'lat'
p10
S'42.9343538'
p11
sS'lon'
p12
S'-70.8432230'
p13
sS'coords'
p14
(F-70.843222999999995
F42.934353799999997
tp15
sS'id'
p16
S'195049052'
p17
ssS'194915159'
p18
(dp19
S'lat'
p20
S'42.9296643'
p21
sS'lon'
p22
S'-70.8356847'
p23
sg14
(F-70.835684700000002
F42.929664299999999
tp24
sS'id'
p25
S'194915159'
p26
ssS'194901206'
p27
(dp28
g20
S'42.9299093'
p29
sg22
S'-70.8433942'
p30
sg14
(F-70.843394200000006
F42.929909299999998
tp31
sg25
S'194901206'
p32
ssS'195190315'
p33
(dp34
S'lat'
p35
S'42.9247684'
p36
sS'lon'
p37
S'-70.8525043'
p38
sg14
(F-70.852504300000007
F42.924768399999998
tp39
sS'id'
p40
S'195190315'
p41
ssS'194891819'
p42
(dp43
g20
S'42.9323239'
p44
sg22
S'-70.8405484'
p45
sg14
(F-70.840548400000003
F42.9323239
tp46
sg25
S'194891819'
p47
ssS'194893524'
p48
(dp49
g10
S'42.9312980'
p50
sg12
S'-70.8437730'
p51
sg14
(F-70.843772999999999
F42.931297999999998
tp52
sg16
S'194893524'
p53
ssS'194904148'
p54
(dp55
S'lat'
p56
S'42.9330060'
p57
sS'lon'
p58
S'-70.8395620'
p59
sg14
(F-70.839562000000001
F42.933005999999999
tp60
sS'id'
p61
S'194904148'
p62
ssS'195049085'
p63
(dp64
g10
S'42.9465540'
p65
sg12
S'-70.8511110'
p66
sg14
(F-70.851111000000003
F42.946553999999999
tp67
sg16
S'195049085'
p68
ssS'194901190'
p69
(dp70
S'lat'
p71
S'42.9307520'
p72
sS'lon'
p73
S'-70.8447210'
p74
sg14
(F-70.844721000000007
F42.930751999999998
tp75
sS'id'
p76
S'194901190'
p77
ssS'194904264'
p78
(dp79
g56
S'42.9352190'
p80
sg58
S'-70.8382680'
p81
sg14
(F-70.838267999999999
F42.935218999999996
tp82
sg61
S'194904264'
p83
ssS'195190119'
p84
(dp85
g56
S'42.9568976'
p86
sg58
S'-70.8336201'
p87
sg14
(F-70.833620100000005
F42.956897599999998
tp88
sg61
S'195190119'
p89
ssS'194904178'
p90
(dp91
g20
S'42.9325280'
p92
sg22
S'-70.8371830'
p93
sg14
(F-70.837182999999996
F42.932527999999998
tp94
sg25
S'194904178'
p95
ssS'194901264'
p96
(dp97
S'lat'
p98
S'42.9288965'
p99
sS'lon'
p100
S'-70.8343181'
p101
sg14
(F-70.834318100000004
F42.9288965
tp102
sS'id'
p103
S'194901264'
p104
ssS'194904174'
p105
(dp106
g56
S'42.9330750'
p107
sg58
S'-70.8372880'
p108
sg14
(F-70.837288000000001
F42.933075000000002
tp109
sg61
S'194904174'
p110
ssS'194891869'
p111
(dp112
g20
S'42.9301370'
p113
sg22
S'-70.8392840'
p114
sg14
(F-70.839284000000006
F42.930137000000002
tp115
sg25
S'194891869'
p116
ssS'194891853'
p117
(dp118
g20
S'42.9311860'
p119
sg22
S'-70.8377160'
p120
sg14
(F-70.837716
F42.931185999999997
tp121
sg25
S'194891853'
p122
ssS'194912632'
p123
(dp124
g20
S'42.9293900'
p125
sg22
S'-70.8470610'
p126
sg14
(F-70.847060999999997
F42.929389999999998
tp127
sg25
S'194912632'
p128
sssS'graph'
p129
(dp130
S'crs'
p131
(dp132
S'init'
p133
S'epsg:4326'
p134
sS'no_defs'
p135
I01
sssS'succ'
p136
(dp137
g8
(dp138
g63
(dp139
S'nodes'
p140
(lp141
S'195049052'
p142
aS'195049054'
p143
aS'195049056'
p144
aS'195049058'
p145
aS'195049060'
p146
aS'195049062'
p147
aS'195049064'
p148
aS'195049066'
p149
aS'195049068'
p150
aS'195049070'
p151
aS'195049072'
p152
aS'195049074'
p153
aS'195049076'
p154
aS'195049077'
p155
aS'195049078'
p156
aS'195049079'
p157
aS'195049080'
p158
aS'195049081'
p159
ag63
asg14
(lp160
(F-70.843495700000005
F42.934577400000002
tp161
a(F-70.844753999999995
F42.935626999999997
tp162
a(F-70.845438000000001
F42.936188999999999
tp163
a(F-70.846382000000006
F42.936985999999997
tp164
a(F-70.846975999999998
F42.937541000000003
tp165
a(F-70.847526999999999
F42.938119999999998
tp166
a(F-70.847790000000003
F42.938415999999997
tp167
a(F-70.848033000000001
F42.938713
tp168
a(F-70.848281999999998
F42.939019000000002
tp169
a(F-70.848729000000006
F42.939639999999997
tp170
a(F-70.849146000000005
F42.940277999999999
tp171
a(F-70.849511000000007
F42.940930999999999
tp172
a(F-70.849828000000002
F42.941595999999997
tp173
a(F-70.850100999999995
F42.942273
tp174
a(F-70.85033
F42.942959000000002
tp175
a(F-70.850515000000001
F42.943651000000003
tp176
a(F-70.850658999999993
F42.944349000000003
tp177
asS'id'
p178
S'122387147-0+122387146-0'
p179
sS'oneway'
p180
S'no'
p181
ssS'194891819'
p182
(dp183
g140
(lp184
S'195049052'
p185
aS'1695226797'
p186
aS'195049049'
p187
aS'195049045'
p188
aS'195049043'
p189
aS'195049041'
p190
aS'1175518160'
p191
aS'195049037'
p192
ag182
asg14
(lp193
(F-70.843102200000004
F42.934257799999997
tp194
a(F-70.842040999999995
F42.933414999999997
tp195
a(F-70.841645999999997
F42.933109999999999
tp196
a(F-70.841168999999994
F42.932763999999999
tp197
a(F-70.841104000000001
F42.932712000000002
tp198
a(F-70.840967199999994
F42.932609599999999
tp199
a(F-70.840682000000001
F42.932412499999998
tp200
asg178
S'157315467-0+101822048-0+101821713-0+122387148-0'
p201
sg180
g181
ssS'194893524'
p202
(dp203
g140
(lp204
g8
aS'194893487'
p205
aS'194893488'
p206
aS'194893490'
p207
aS'194893492'
p208
aS'194893494'
p209
aS'194893496'
p210
aS'194893498'
p211
aS'194893500'
p212
aS'194893502'
p213
aS'194893504'
p214
aS'194893506'
p215
aS'194893508'
p216
aS'194893510'
p217
aS'194893512'
p218
aS'194893514'
p219
aS'194893516'
p220
aS'194893518'
p221
aS'194893520'
p222
aS'194893522'
p223
aS'194893523'
p224
ag202
asg14
(lp225
(F-70.843156100000002
F42.934253099999999
tp226
a(F-70.842988000000005
F42.934027
tp227
a(F-70.842892000000006
F42.933906999999998
tp228
a(F-70.842809000000003
F42.933781000000003
tp229
a(F-70.842738999999995
F42.93365
tp230
a(F-70.842680000000001
F42.933517000000002
tp231
a(F-70.84263
F42.933380999999997
tp232
a(F-70.842592999999994
F42.933242999999997
tp233
a(F-70.842568999999997
F42.933103000000003
tp234
a(F-70.842566000000005
F42.932892000000002
tp235
a(F-70.842592999999994
F42.932684999999999
tp236
a(F-70.842626999999993
F42.932547
tp237
a(F-70.842704999999995
F42.932346000000003
tp238
a(F-70.842774000000006
F42.932215999999997
tp239
a(F-70.842901999999995
F42.932026999999998
tp240
a(F-70.843002999999996
F42.931908999999997
tp241
a(F-70.843115999999995
F42.931797000000003
tp242
a(F-70.843239999999994
F42.931690000000003
tp243
a(F-70.843372000000002
F42.931589000000002
tp244
a(F-70.843577999999994
F42.931444999999997
tp245
asg178
S'18855357-0+157315473-0'
p246
sg180
S'yes'
p247
sssg18
(dp248
S'194891819'
p249
(dp250
g140
(lp251
g18
aS'439969146'
p252
aS'439969148'
p253
aS'439969149'
p254
ag249
asg14
(lp255
(F-70.837758500000007
F42.930807199999997
tp256
a(F-70.838190800000007
F42.931041800000003
tp257
a(F-70.839852899999997
F42.931925100000001
tp258
asg178
S'122387145-0+122387141-0+122387142-0'
p259
sg180
g181
ssS'194904178'
p260
(dp261
S'tiger:cfcc'
p262
S'A63'
p263
sS'tiger:reviewed'
p264
S'no'
p265
sS'tiger:county'
p266
S'Rockingham, NH'
p267
sg14
(lp268
(F-70.836348999999998
F42.930132
tp269
a(F-70.836620999999994
F42.930329999999998
tp270
a(F-70.83681
F42.930489999999999
tp271
a(F-70.836918999999995
F42.930605
tp272
a(F-70.836967000000001
F42.930666000000002
tp273
a(F-70.837091999999998
F42.930853999999997
tp274
a(F-70.837125
F42.930917999999998
tp275
a(F-70.837182999999996
F42.931050999999997
tp276
a(F-70.837207000000006
F42.93112
tp277
a(F-70.837239999999994
F42.931255999999998
tp278
a(F-70.837250999999995
F42.931325999999999
tp279
a(F-70.837254999999999
F42.931534999999997
tp280
a(F-70.837165999999996
F42.931947000000001
tp281
a(F-70.837146000000004
F42.932087000000003
tp282
asS'oneway'
p283
S'yes'
p284
sg140
(lp285
S'194915159'
p286
aS'194915157'
p287
aS'194915156'
p288
aS'194915155'
p289
aS'194915153'
p290
aS'194915151'
p291
aS'194915149'
p292
aS'194915148'
p293
aS'194915147'
p294
aS'194915146'
p295
aS'194915145'
p296
aS'194915144'
p297
aS'194915143'
p298
aS'194915142'
p299
aS'194915141'
p300
ag260
asg25
S'18857242-0'
p301
sS'highway'
p302
S'trunk_link'
p303
ssS'194901264'
p304
(dp305
S'tiger:name_base'
p306
S'Exeter-Hampton'
p307
sS'lanes'
p308
S'2'
sS'name'
p309
S'Exeter-Hampton Expressway'
p310
sS'tiger:cfcc'
p311
S'A31'
p312
sS'tiger:reviewed'
p313
S'no'
p314
sS'tiger:name_base_1'
p315
S'State Route 101'
p316
sS'tiger:county'
p317
S'Rockingham, NH'
p318
sS'tiger:name_type'
p319
S'Expy'
p320
sS'oneway'
p321
S'no'
p322
sg14
(lp323
sg140
(lp324
g304
aS'194915159'
p325
asS'ref'
p326
S'NH 101'
p327
sg103
S'122387143-0'
p328
sS'highway'
p329
S'trunk'
p330
sssg27
(dp331
S'194891869'
p332
(dp333
S'maxspeed'
p334
S'35 mph'
p335
sS'lanes'
p336
S'2'
sS'tiger:cfcc'
p337
S'A63'
p338
sS'tiger:reviewed'
p339
S'no'
p340
sS'tiger:county'
p341
S'Rockingham, NH'
p342
sg14
(lp343
(F-70.843102999999999
F42.929918000000001
tp344
a(F-70.842532000000006
F42.929912000000002
tp345
a(F-70.841003999999998
F42.929912000000002
tp346
a(F-70.840620000000001
F42.929924
tp347
a(F-70.840429999999998
F42.929935
tp348
a(F-70.840241000000006
F42.929952
tp349
a(F-70.840052999999997
F42.929976000000003
tp350
a(F-70.839633399999997
F42.930048599999999
tp351
asS'oneway'
p352
S'yes'
p353
sg140
(lp354
g27
aS'194901211'
p355
aS'194901212'
p356
aS'194901214'
p357
aS'194901216'
p358
aS'194901218'
p359
aS'194901220'
p360
aS'194901222'
p361
aS'194901223'
p362
ag332
asS'ref'
p363
S'US 1'
p364
sg25
S'18856993-1'
p365
sS'highway'
p366
S'primary'
p367
sssg33
(dp368
S'194912632'
p369
(dp370
g140
(lp371
g369
aS'195190289'
p372
aS'195190291'
p373
aS'2296323017'
p374
aS'195190293'
p375
aS'195190295'
p376
aS'1363161904'
p377
aS'195190297'
p378
aS'195190299'
p379
aS'195190301'
p380
aS'195190303'
p381
aS'195190305'
p382
aS'195190307'
p383
aS'195190309'
p384
aS'195190311'
p385
aS'195190313'
p386
ag33
asg14
(lp387
(F-70.852216999999996
F42.924988999999997
tp388
a(F-70.852108000000001
F42.925089999999997
tp389
a(F-70.851626999999993
F42.925443000000001
tp390
a(F-70.851293999999996
F42.925705000000001
tp391
a(F-70.850627000000003
F42.926217999999999
tp392
a(F-70.850302999999997
F42.926476999999998
tp393
a(F-70.849985000000004
F42.926738999999998
tp394
a(F-70.849692000000005
F42.927016999999999
tp395
a(F-70.849408999999994
F42.927292999999999
tp396
a(F-70.849064600000005
F42.9276348
tp397
a(F-70.848326
F42.928367999999999
tp398
a(F-70.847791000000001
F42.928863
tp399
a(F-70.847713600000006
F42.9289281
tp400
a(F-70.847603000000007
F42.929020999999999
tp401
a(F-70.847402000000002
F42.929169999999999
tp402
asg178
S'121865107-0+220520062-0+121865090-0'
p403
sg180
g181
sssg42
(dp404
g185
(dp405
g140
g184
sg14
(lp406
g200
ag199
ag198
ag197
ag196
ag195
ag194
asg178
g201
sg180
g181
ssg18
(dp407
g140
g251
sg14
(lp408
g258
ag257
ag256
asg178
g259
sg180
g181
sssg48
(dp409
g69
(dp410
S'tiger:name_base'
p411
S'Lafayette'
p412
sS'lanes'
p413
S'2'
sS'name'
p414
S'Lafayette Road'
p415
sS'tiger:cfcc'
p416
S'A21'
p417
sS'tiger:reviewed'
p418
S'no'
p419
sS'tiger:name_base_1'
p420
S'United States Highway 1'
p421
sS'tiger:county'
p422
S'Rockingham, NH'
p423
sS'tiger:name_type'
p424
S'Rd'
p425
sS'oneway'
p426
S'yes'
p427
sg14
(lp428
(F-70.844262000000001
F42.931023000000003
tp429
asg140
(lp430
g48
aS'195190283'
p431
ag69
asS'ref'
p432
S'US 1'
p433
sg76
S'121865093-1'
p434
sS'highway'
p435
S'primary'
p436
sssg54
(dp437
g48
(dp438
g411
g412
sg413
S'2'
sg414
g415
sg416
g417
sg418
g419
sg420
g421
sg422
g423
sg424
g425
sg426
g427
sg14
(lp439
(F-70.83981
F42.932907999999998
tp440
a(F-70.839883999999998
F42.932884000000001
tp441
a(F-70.840137999999996
F42.932783999999998
tp442
a(F-70.840738000000002
F42.932564999999997
tp443
a(F-70.840830999999994
F42.932527999999998
tp444
a(F-70.840996000000004
F42.932471999999997
tp445
a(F-70.84151
F42.932279000000001
tp446
a(F-70.842191999999997
F42.932025000000003
tp447
a(F-70.842526000000007
F42.931888999999998
tp448
a(F-70.843014999999994
F42.931671999999999
tp449
a(F-70.843570999999997
F42.931401000000001
tp450
asg140
(lp451
g54
aS'195190261'
p452
aS'195190263'
p453
aS'195190265'
p454
aS'195190267'
p455
aS'195049039'
p456
aS'195190269'
p457
aS'195190271'
p458
aS'195190274'
p459
aS'195190278'
p460
aS'195190280'
p461
aS'195190281'
p462
ag48
asg432
g433
sg76
S'121865093-0'
p463
sg435
g436
sssg63
(dp464
g142
(dp465
g140
g141
sg14
(lp466
g177
ag176
ag175
ag174
ag173
ag172
ag171
ag170
ag169
ag168
ag167
ag166
ag165
ag164
ag163
ag162
ag161
asg178
g179
sg180
g181
sssg69
(dp467
S'194912632'
p468
(dp469
g140
(lp470
g69
aS'1363161905'
p471
aS'195190285'
p472
aS'195190287'
p473
ag468
asg14
(lp474
(F-70.845718199999993
F42.930189599999999
tp475
a(F-70.846384
F42.929814
tp476
a(F-70.846828000000002
F42.929544
tp477
asg178
S'121865093-2+121865104-0'
p478
sg180
g247
ssS'194901206'
p479
(dp480
S'tiger:source'
p481
S'tiger_import_dch_v0.6_20070828'
p482
sS'tiger:upload_uuid'
p483
S'bulk_upload.pl-7acd4f9b-a3cf-49fe-801f-66907ff14022'
p484
sS'tiger:cfcc'
p485
S'A63'
p486
sS'tiger:reviewed'
p487
S'no'
p488
sS'tiger:county'
p489
S'Rockingham, NH'
p490
sS'tiger:tlid'
p491
S'113676004:113676032:113676033:113676011:113719626'
p492
sS'oneway'
p493
S'yes'
p494
sg14
(lp495
(F-70.844779000000003
F42.930638000000002
tp496
a(F-70.844819000000001
F42.930579000000002
tp497
a(F-70.844896000000006
F42.930446000000003
tp498
a(F-70.844898999999998
F42.930301
tp499
a(F-70.844821999999994
F42.930168000000002
tp500
a(F-70.844678000000002
F42.930069000000003
tp501
a(F-70.844588999999999
F42.930042
tp502
a(F-70.844496000000007
F42.930025999999998
tp503
asg140
(lp504
S'194901190'
p505
aS'194901191'
p506
aS'194901192'
p507
aS'194901193'
p508
aS'194901195'
p509
aS'194901196'
p510
aS'194901197'
p511
aS'194901198'
p512
aS'194901200'
p513
ag479
asS'id'
p514
S'18855988-0'
p515
sS'highway'
p516
S'primary_link'
p517
sssg78
(dp518
g84
(dp519
S'tiger:source'
p520
S'tiger_import_dch_v0.6_20070828'
p521
sS'lanes'
p522
S'2'
sS'tiger:reviewed'
p523
S'no'
p524
sS'tiger:separated'
p525
S'no'
p526
sS'tiger:county'
p527
S'Rockingham, NH'
p528
sS'tiger:tlid'
p529
S'113704489:113704490'
p530
sg61
S'101821670-0'
p531
sS'name'
p532
S'Lafayette Road'
p533
sS'tiger:name_base'
p534
S'Lafayette'
p535
sS'tiger:upload_uuid'
p536
S'bulk_upload.pl-7acd4f9b-a3cf-49fe-801f-66907ff14022'
p537
sS'tiger:cfcc'
p538
S'A21'
p539
sS'tiger:name_base_1'
p540
S'United States Highway 1'
p541
sS'tiger:name_type'
p542
S'Rd'
p543
sg14
(lp544
(F-70.838346000000001
F42.935768000000003
tp545
a(F-70.838364999999996
F42.935955999999997
tp546
a(F-70.838347999999996
F42.936450999999998
tp547
a(F-70.838345000000004
F42.936652000000002
tp548
a(F-70.838362000000004
F42.937074000000003
tp549
a(F-70.838351000000003
F42.937384000000002
tp550
a(F-70.838351000000003
F42.938004999999997
tp551
a(F-70.838353999999995
F42.938515000000002
tp552
a(F-70.838347999999996
F42.938797999999998
tp553
a(F-70.838327000000007
F42.939075000000003
tp554
a(F-70.838221000000004
F42.939767000000003
tp555
a(F-70.838138999999998
F42.940185
tp556
a(F-70.838070000000002
F42.940567000000001
tp557
a(F-70.838021999999995
F42.940956
tp558
a(F-70.838009999999997
F42.941181999999998
tp559
a(F-70.837968000000004
F42.941437999999998
tp560
a(F-70.837918999999999
F42.941701000000002
tp561
a(F-70.837879000000001
F42.941847000000003
tp562
a(F-70.837671999999998
F42.942180999999998
tp563
a(F-70.837532999999993
F42.942355999999997
tp564
a(F-70.837404000000006
F42.942529999999998
tp565
a(F-70.837188999999995
F42.942760999999997
tp566
a(F-70.836680999999999
F42.943280999999999
tp567
a(F-70.836448000000004
F42.943502000000002
tp568
a(F-70.836258999999998
F42.943668000000002
tp569
a(F-70.836123999999998
F42.943778000000002
tp570
a(F-70.836016999999998
F42.943871999999999
tp571
a(F-70.835600999999997
F42.944172999999999
tp572
a(F-70.835378000000006
F42.944310000000002
tp573
a(F-70.835279999999997
F42.944364999999998
tp574
a(F-70.834529000000003
F42.944814999999998
tp575
a(F-70.834407999999996
F42.944884000000002
tp576
a(F-70.834218000000007
F42.945008000000001
tp577
a(F-70.834001000000001
F42.945177999999999
tp578
a(F-70.833883
F42.945287
tp579
a(F-70.833720999999997
F42.945449000000004
tp580
a(F-70.833665999999994
F42.945509000000001
tp581
a(F-70.833573999999999
F42.945627000000002
tp582
a(F-70.833490999999995
F42.945751000000001
tp583
a(F-70.833371999999997
F42.945950000000003
tp584
a(F-70.833309
F42.946081999999997
tp585
a(F-70.833174999999997
F42.946421999999998
tp586
a(F-70.833105000000003
F42.946565
tp587
a(F-70.832949999999997
F42.946879000000003
tp588
a(F-70.832877999999994
F42.947026000000001
tp589
a(F-70.832734000000002
F42.947358999999999
tp590
a(F-70.832586000000006
F42.947718999999999
tp591
a(F-70.832419999999999
F42.948107
tp592
a(F-70.832239000000001
F42.948475999999999
tp593
a(F-70.832184999999996
F42.948590000000003
tp594
a(F-70.832142000000005
F42.948729
tp595
a(F-70.832111999999995
F42.948895999999998
tp596
a(F-70.832098000000002
F42.949078999999998
tp597
a(F-70.832094999999995
F42.949179000000001
tp598
a(F-70.832106999999993
F42.949330000000003
tp599
a(F-70.832132000000001
F42.949542999999998
tp600
a(F-70.832218999999995
F42.950595
tp601
a(F-70.832250000000002
F42.950870000000002
tp602
a(F-70.832282000000006
F42.951078000000003
tp603
a(F-70.832337999999993
F42.951352999999997
tp604
a(F-70.832498000000001
F42.951993999999999
tp605
a(F-70.832594999999998
F42.952385
tp606
a(F-70.832694000000004
F42.952823000000002
tp607
a(F-70.832866999999993
F42.953515000000003
tp608
a(F-70.832963000000007
F42.953859000000001
tp609
a(F-70.833051999999995
F42.954208000000001
tp610
a(F-70.83314
F42.954611
tp611
a(F-70.833181999999994
F42.954794999999997
tp612
a(F-70.833275999999998
F42.955283999999999
tp613
a(F-70.833329000000006
F42.955585999999997
tp614
a(F-70.833410999999998
F42.955874999999999
tp615
asg140
(lp616
g84
aS'195189455'
p617
aS'194919762'
p618
aS'195190121'
p619
aS'195190123'
p620
aS'194986173'
p621
aS'195190125'
p622
aS'195190127'
p623
aS'195190129'
p624
aS'195190131'
p625
aS'195033845'
p626
aS'195112803'
p627
aS'195190133'
p628
aS'195190135'
p629
aS'195190137'
p630
aS'195190139'
p631
aS'195190141'
p632
aS'195190143'
p633
aS'195190145'
p634
aS'194931602'
p635
aS'195190147'
p636
aS'195190149'
p637
aS'195190151'
p638
aS'195190153'
p639
aS'195190154'
p640
aS'195190155'
p641
aS'195190156'
p642
aS'195190157'
p643
aS'195190158'
p644
aS'195063391'
p645
aS'194884309'
p646
aS'195190160'
p647
aS'195190162'
p648
aS'195190164'
p649
aS'195190167'
p650
aS'195190169'
p651
aS'194884315'
p652
aS'195190171'
p653
aS'195190173'
p654
aS'195190175'
p655
aS'195041349'
p656
aS'195190177'
p657
aS'195190179'
p658
aS'195190181'
p659
aS'195190183'
p660
aS'195190185'
p661
aS'195190187'
p662
aS'195190189'
p663
aS'195190191'
p664
aS'195190192'
p665
aS'195190194'
p666
aS'195190196'
p667
aS'195190198'
p668
aS'195190200'
p669
aS'194943944'
p670
aS'195190202'
p671
aS'195160787'
p672
aS'195160804'
p673
aS'195190204'
p674
aS'194981406'
p675
aS'195190206'
p676
aS'195190208'
p677
aS'195190210'
p678
aS'195190211'
p679
aS'195190213'
p680
aS'195190215'
p681
aS'195190217'
p682
aS'195190219'
p683
aS'195190221'
p684
aS'195190223'
p685
aS'195190225'
p686
aS'195036540'
p687
aS'194904264'
p688
asS'ref'
p689
S'US 1'
p690
sS'highway'
p691
S'primary'
p692
ssS'194904148'
p693
(dp694
S'tiger:name_base'
p695
S'Lafayette'
p696
sS'lanes'
p697
S'1'
sS'name'
p698
S'Lafayette Road'
p699
sS'tiger:cfcc'
p700
S'A21'
p701
sS'tiger:reviewed'
p702
S'no'
p703
sS'tiger:name_base_1'
p704
S'United States Highway 1'
p705
sS'tiger:county'
p706
S'Rockingham, NH'
p707
sS'tiger:name_type'
p708
S'Rd'
p709
sS'oneway'
p710
S'yes'
p711
sg14
(lp712
(F-70.838289000000003
F42.935116000000001
tp713
a(F-70.838278000000003
F42.934905999999998
tp714
a(F-70.838279
F42.934696000000002
tp715
a(F-70.838296999999997
F42.934556000000001
tp716
a(F-70.838329999999999
F42.934418000000001
tp717
a(F-70.838377199999996
F42.934284499999997
tp718
a(F-70.838437999999996
F42.934148
tp719
a(F-70.838507000000007
F42.934016
tp720
a(F-70.838588000000001
F42.933889000000001
tp721
a(F-70.838678999999999
F42.933765999999999
tp722
a(F-70.838780999999997
F42.933647999999998
tp723
a(F-70.838893999999996
F42.933534999999999
tp724
a(F-70.839016000000001
F42.933427000000002
tp725
a(F-70.839146
F42.933325000000004
tp726
a(F-70.839207000000002
F42.93327
tp727
a(F-70.839337999999998
F42.933169999999997
tp728
a(F-70.839483000000001
F42.933081000000001
tp729
asg140
(lp730
g78
aS'195190231'
p731
aS'195190238'
p732
aS'195190239'
p733
aS'195190240'
p734
aS'195190241'
p735
aS'194888485'
p736
aS'195190242'
p737
aS'195190243'
p738
aS'195190244'
p739
aS'195190245'
p740
aS'195190247'
p741
aS'195190249'
p742
aS'195190251'
p743
aS'195190253'
p744
aS'195190255'
p745
aS'195190257'
p746
aS'195190259'
p747
ag693
asS'ref'
p748
S'US 1'
p749
sg61
S'121865095-0'
p750
sS'highway'
p751
S'primary'
p752
sssg84
(dp753
g688
(dp754
g520
g521
sg522
S'2'
sg523
g524
sg525
g526
sg527
g528
sg529
g530
sg61
g531
sg532
g533
sg534
g535
sg536
g537
sg538
g539
sg540
g541
sg542
g543
sg14
(lp755
g615
ag614
ag613
ag612
ag611
ag610
ag609
ag608
ag607
ag606
ag605
ag604
ag603
ag602
ag601
ag600
ag599
ag598
ag597
ag596
ag595
ag594
ag593
ag592
ag591
ag590
ag589
ag588
ag587
ag586
ag585
ag584
ag583
ag582
ag581
ag580
ag579
ag578
ag577
ag576
ag575
ag574
ag573
ag572
ag571
ag570
ag569
ag568
ag567
ag566
ag565
ag564
ag563
ag562
ag561
ag560
ag559
ag558
ag557
ag556
ag555
ag554
ag553
ag552
ag551
ag550
ag549
ag548
ag547
ag546
ag545
asg140
g616
sg689
g690
sg691
g692
sssg90
(dp756
g105
(dp757
g334
g335
sg336
S'2'
sg337
g338
sg339
g340
sg341
g342
sg14
(lp758
(F-70.837191000000004
F42.932668
tp759
a(F-70.837211999999994
F42.932808000000001
tp760
a(F-70.837266999999997
F42.933014
tp761
asg352
g353
sg140
(lp762
g90
aS'194904177'
p763
aS'194904176'
p764
aS'194904175'
p765
ag105
asg363
g364
sg25
S'18856993-4'
p766
sg366
g367
sssg96
(dp767
g325
(dp768
g306
g307
sg308
S'2'
sg309
g310
sg311
g312
sg313
g314
sg315
g316
sg317
g318
sg319
g320
sg321
g322
sg14
(lp769
sg140
g324
sg326
g327
sg103
g328
sg329
g330
sssg105
(dp770
S'194904264'
p771
(dp772
S'tiger:source'
p773
S'tiger_import_dch_v0.6_20070828'
p774
sS'lanes'
p775
S'1'
sS'tiger:upload_uuid'
p776
S'bulk_upload.pl-7acd4f9b-a3cf-49fe-801f-66907ff14022'
p777
sS'tiger:cfcc'
p778
S'A63'
p779
sS'tiger:reviewed'
p780
S'no'
p781
sS'tiger:county'
p782
S'Rockingham, NH'
p783
sS'tiger:tlid'
p784
S'113675908:113675911:113675917:113675920:113675922:113675923:113676004:113676010:113676011:113676020:113676028:113676032:113676033:113719626'
p785
sS'oneway'
p786
S'yes'
p787
sg14
(lp788
(F-70.837306999999996
F42.933154000000002
tp789
a(F-70.837440000000001
F42.933492000000001
tp790
a(F-70.837545000000006
F42.933689999999999
tp791
a(F-70.837922300000002
F42.934396
tp792
a(F-70.837986999999998
F42.934547999999999
tp793
a(F-70.838044999999994
F42.934683999999997
tp794
a(F-70.838117999999994
F42.934887000000003
tp795
a(F-70.838159000000005
F42.935025000000003
tp796
a(F-70.838202999999993
F42.935152000000002
tp797
asg140
(lp798
S'194904174'
p799
aS'194904244'
p800
aS'194904246'
p801
aS'194904250'
p802
aS'194888489'
p803
aS'194904254'
p804
aS'194904256'
p805
aS'194904258'
p806
aS'194904260'
p807
aS'194904262'
p808
ag771
asS'ref'
p809
S'US 1'
p810
sg61
S'121865137-0'
p811
sS'highway'
p812
S'primary'
p813
ssS'194904148'
p814
(dp815
S'tiger:source'
p816
S'tiger_import_dch_v0.6_20070828'
p817
sS'tiger:upload_uuid'
p818
S'bulk_upload.pl-7acd4f9b-a3cf-49fe-801f-66907ff14022'
p819
sS'tiger:cfcc'
p820
S'A63'
p821
sS'tiger:reviewed'
p822
S'no'
p823
sS'tiger:county'
p824
S'Rockingham, NH'
p825
sS'tiger:tlid'
p826
S'113675911:113675920:113675923'
p827
sS'oneway'
p828
S'yes'
p829
sg14
(lp830
(F-70.837490000000003
F42.933318999999997
tp831
a(F-70.837592999999998
F42.933438000000002
tp832
a(F-70.837728999999996
F42.933534999999999
tp833
a(F-70.837984000000006
F42.933621000000002
tp834
a(F-70.838171000000003
F42.933641000000001
tp835
a(F-70.838362000000004
F42.933630999999998
tp836
a(F-70.838543000000001
F42.933588
tp837
a(F-70.838701
F42.933509999999998
tp838
a(F-70.838972999999996
F42.933314000000003
tp839
a(F-70.839115000000007
F42.933219999999999
tp840
a(F-70.839338999999995
F42.93309
tp841
asg140
(lp842
S'194904174'
p843
aS'194904170'
p844
aS'194904168'
p845
aS'194904166'
p846
aS'194904164'
p847
aS'194904162'
p848
aS'194904160'
p849
aS'194904158'
p850
aS'194904156'
p851
aS'194904154'
p852
aS'194904152'
p853
aS'194904150'
p854
ag814
asg25
S'121865170-0'
p855
sS'highway'
p856
S'primary_link'
p857
sssg111
(dp858
g117
(dp859
g334
g335
sg336
S'2'
sg337
g338
sg339
g340
sg341
g342
sg14
(lp860
(F-70.838751999999999
F42.930393000000002
tp861
a(F-70.8386
F42.930475999999999
tp862
a(F-70.838452000000004
F42.930565999999999
tp863
a(F-70.838312000000002
F42.930661999999998
tp864
a(F-70.838177999999999
F42.930762000000001
tp865
a(F-70.837811000000002
F42.931082000000004
tp866
asg352
g353
sg140
(lp867
g332
aS'194891867'
p868
aS'194891865'
p869
aS'194891863'
p870
aS'194891861'
p871
aS'194891859'
p872
aS'194891855'
p873
ag117
asg363
g364
sg25
S'18856993-2'
p874
sg366
g367
ssg96
(dp875
S'tiger:cfcc'
p876
S'A63'
p877
sS'tiger:reviewed'
p878
S'no'
p879
sS'tiger:county'
p880
S'Rockingham, NH'
p881
sg14
(lp882
(F-70.838312999999999
F42.930297500000002
tp883
a(F-70.838125000000005
F42.930315
tp884
a(F-70.837935000000002
F42.930312999999998
tp885
a(F-70.837743000000003
F42.930301999999998
tp886
a(F-70.837648999999999
F42.930292000000001
tp887
a(F-70.837372999999999
F42.930236999999998
tp888
a(F-70.837194999999994
F42.930188999999999
tp889
a(F-70.837072000000006
F42.930149
tp890
a(F-70.837018999999998
F42.930132
tp891
a(F-70.836847000000006
F42.930069000000003
tp892
a(F-70.836513999999994
F42.929929000000001
tp893
a(F-70.836107999999996
F42.929738
tp894
a(F-70.835465999999997
F42.929425999999999
tp895
a(F-70.834945599999998
F42.929180700000003
tp896
asS'oneway'
p897
S'yes'
p898
sg140
(lp899
g111
aS'194901233'
p900
aS'194901235'
p901
aS'194901237'
p902
aS'194901239'
p903
aS'194901241'
p904
aS'194901243'
p905
aS'194901248'
p906
aS'194901250'
p907
aS'194901253'
p908
aS'194901255'
p909
aS'194901257'
p910
aS'194901259'
p911
aS'194901261'
p912
aS'194901263'
p913
ag96
asg103
S'121865172-0'
p914
sS'highway'
p915
S'trunk_link'
p916
sssg117
(dp917
g42
(dp918
S'maxspeed'
p919
S'25 mph'
p920
sS'tiger:cfcc'
p921
S'A63'
p922
sS'tiger:reviewed'
p923
S'no'
p924
sS'tiger:county'
p925
S'Rockingham, NH'
p926
sg14
(lp927
(F-70.837671999999998
F42.931345999999998
tp928
a(F-70.837637000000001
F42.931412000000002
tp929
a(F-70.837584000000007
F42.931550000000001
tp930
a(F-70.837563000000003
F42.931691000000001
tp931
a(F-70.837574000000004
F42.931834000000002
tp932
a(F-70.837619000000004
F42.931972000000002
tp933
a(F-70.837705
F42.932099000000001
tp934
a(F-70.837832000000006
F42.932206999999998
tp935
a(F-70.837986999999998
F42.932290999999999
tp936
a(F-70.838162999999994
F42.932347
tp937
a(F-70.838352
F42.932375
tp938
a(F-70.838544999999996
F42.932366999999999
tp939
a(F-70.838728000000003
F42.932326000000003
tp940
a(F-70.838992000000005
F42.932245000000002
tp941
a(F-70.839170999999993
F42.932198
tp942
a(F-70.839353000000003
F42.932161000000001
tp943
a(F-70.839447000000007
F42.932147999999998
tp944
a(F-70.839635000000001
F42.932138999999999
tp945
a(F-70.839823999999993
F42.932149000000003
tp946
a(F-70.840008999999995
F42.932178
tp947
a(F-70.840187
F42.932228000000002
tp948
asS'oneway'
p949
S'yes'
p950
sg140
(lp951
S'194891853'
p952
aS'194891851'
p953
aS'194891849'
p954
aS'194891847'
p955
aS'194891846'
p956
aS'194891845'
p957
aS'194891843'
p958
aS'194891841'
p959
aS'194891839'
p960
aS'194891838'
p961
aS'194891837'
p962
aS'194891835'
p963
aS'194891833'
p964
aS'194891831'
p965
aS'194891830'
p966
aS'194891829'
p967
aS'194891828'
p968
aS'194891827'
p969
aS'194891826'
p970
aS'194891825'
p971
aS'194891823'
p972
aS'194891821'
p973
ag42
asg25
S'18855218-0'
p974
sS'highway'
p975
S'trunk_link'
p976
ssg90
(dp977
g334
g335
sg336
S'2'
sg337
g338
sg339
g340
sg341
g342
sg14
(lp978
(F-70.837609
F42.931319000000002
tp979
a(F-70.837524999999999
F42.931444999999997
tp980
a(F-70.837451000000001
F42.931573999999998
tp981
a(F-70.837385999999995
F42.931705999999998
tp982
a(F-70.837328999999997
F42.931838999999997
tp983
a(F-70.837277999999998
F42.931975999999999
tp984
a(F-70.837237000000002
F42.932113000000001
tp985
asg352
g353
sg140
(lp986
g117
aS'194904190'
p987
aS'194904188'
p988
aS'194904185'
p989
aS'194904184'
p990
aS'194904182'
p991
aS'194904181'
p992
aS'194904180'
p993
ag90
asg363
g364
sg25
S'18856993-3'
p994
sg366
g367
sssg123
(dp995
g33
(dp996
g140
g371
sg14
(lp997
g402
ag401
ag400
ag399
ag398
ag397
ag396
ag395
ag394
ag393
ag392
ag391
ag390
ag389
ag388
asg178
g403
sg180
g181
ssg27
(dp998
g334
g335
sg336
S'2'
sg337
g338
sg339
g340
sg341
g342
sg14
(lp999
(F-70.846832000000006
F42.929465
tp1000
a(F-70.846581999999998
F42.929577999999999
tp1001
a(F-70.846402999999995
F42.929644000000003
tp1002
a(F-70.846226000000001
F42.929699999999997
tp1003
a(F-70.845950999999999
F42.929768000000003
tp1004
a(F-70.845579999999998
F42.929841000000003
tp1005
a(F-70.845487000000006
F42.929856999999998
tp1006
a(F-70.845297000000002
F42.929881999999999
tp1007
a(F-70.845105000000004
F42.929896999999997
tp1008
a(F-70.844627000000003
F42.929912000000002
tp1009
asg352
g353
sg140
(lp1010
g123
aS'194912630'
p1011
aS'194912628'
p1012
aS'194912626'
p1013
aS'194912624'
p1014
aS'194912622'
p1015
aS'194912620'
p1016
aS'194912618'
p1017
aS'194912616'
p1018
aS'194912614'
p1019
aS'194912610'
p1020
ag27
asg363
g364
sg25
S'18856993-0'
p1021
sg366
g367
ssssS'edge'
p1022
g137
sS'pred'
p1023
(dp1024
g8
(dp1025
g63
g465
sg182
g405
ssg18
(dp1026
g249
g407
sg304
g768
ssg27
(dp1027
g505
g480
sg123
g998
ssg33
(dp1028
g369
g996
ssg42
(dp1029
g185
g183
sg18
g250
sg952
g918
ssg48
(dp1030
g8
g203
sg54
g438
ssg54
(dp1031
g78
g694
sg843
g815
ssg63
(dp1032
g142
g139
ssg69
(dp1033
g48
g410
ssg78
(dp1034
g799
g772
sg84
g754
ssg84
(dp1035
g688
g519
ssg90
(dp1036
g286
g261
sg117
g977
ssg96
(dp1037
g325
g305
sg111
g875
ssg105
(dp1038
g90
g757
ssg111
(dp1039
g27
g333
ssg117
(dp1040
g332
g859
ssg123
(dp1041
g69
g469
sg33
g370
sssS'adj'
p1042
g137
sb.